target datalayout = "e-m:e-p270:32:32-p271:32:32-p272:64:64-i64:64-i128:128-f80:128-n8:16:32:64-S128"
target triple = "x86_64-pc-linux-gnu"

%"class.std::tuple" = type { %"struct.std::_Tuple_impl" }
%"struct.std::_Tuple_impl" = type { %"struct.std::_Tuple_impl.0", %"struct.std::_Head_base.3" }
%"struct.std::_Tuple_impl.0" = type { %"struct.std::_Tuple_impl.1", %"struct.std::_Head_base.2" }
%"struct.std::_Tuple_impl.1" = type { %"struct.std::_Head_base" }
%"struct.std::_Head_base" = type { i32 }
%"struct.std::_Head_base.2" = type { i32 }
%"struct.std::_Head_base.3" = type { i32 }

; Function Attrs: mustprogress nounwind uwtable
define linkonce_odr noundef nonnull align 4 dereferenceable(4) ptr @_ZNSt10_Head_baseILm2EiLb0EE7_M_headERKS0_(ptr noundef nonnull align 4 dereferenceable(4) %0) #5 comdat align 2 {
  %2 = alloca ptr, align 8
  store ptr %0, ptr %2, align 8, !tbaa !253
  %3 = load ptr, ptr %2, align 8, !tbaa !253
  %4 = getelementptr inbounds nuw %"struct.std::_Head_base", ptr %3, i32 0, i32 0
  ret ptr %4
}

; Function Attrs: mustprogress nounwind uwtable
define linkonce_odr noundef nonnull align 4 dereferenceable(4) ptr @_ZNSt11_Tuple_implILm2EJiEE7_M_headERKS0_(ptr noundef nonnull align 4 dereferenceable(4) %0) #5 comdat align 2 {
  %2 = alloca ptr, align 8
  store ptr %0, ptr %2, align 8, !tbaa !247
  %3 = load ptr, ptr %2, align 8, !tbaa !247
  %4 = call noundef nonnull align 4 dereferenceable(4) ptr @_ZNSt10_Head_baseILm2EiLb0EE7_M_headERKS0_(ptr noundef nonnull align 4 dereferenceable(4) %3) #3
  ret ptr %4
}

; Function Attrs: mustprogress nounwind uwtable
define linkonce_odr noundef nonnull align 4 dereferenceable(4) ptr @_ZNSt10_Head_baseILm1EiLb0EE7_M_headERKS0_(ptr noundef nonnull align 4 dereferenceable(4) %0) #5 comdat align 2 {
  %2 = alloca ptr, align 8
  store ptr %0, ptr %2, align 8, !tbaa !249
  %3 = load ptr, ptr %2, align 8, !tbaa !249
  %4 = getelementptr inbounds nuw %"struct.std::_Head_base.2", ptr %3, i32 0, i32 0
  ret ptr %4
}

; Function Attrs: mustprogress nounwind uwtable
define linkonce_odr void @_ZNSt10_Head_baseILm2EiLb0EEC2IiEEOT_(ptr noundef nonnull align 4 dereferenceable(4) %0, ptr noundef nonnull align 4 dereferenceable(4) %1) unnamed_addr #5 comdat align 2 {
  %3 = alloca ptr, align 8
  %4 = alloca ptr, align 8
  store ptr %0, ptr %3, align 8, !tbaa !253
  store ptr %1, ptr %4, align 8, !tbaa !59
  %5 = load ptr, ptr %3, align 8
  %6 = getelementptr inbounds nuw %"struct.std::_Head_base", ptr %5, i32 0, i32 0
  %7 = load ptr, ptr %4, align 8, !tbaa !59
  %8 = load i32, ptr %7, align 4, !tbaa !45
  store i32 %8, ptr %6, align 4, !tbaa !255
  ret void
}

; Function Attrs: mustprogress nounwind uwtable
define linkonce_odr noundef nonnull align 4 dereferenceable(4) ptr @_ZSt12__get_helperILm2EiJEERKT0_RKSt11_Tuple_implIXT_EJS0_DpT1_EE(ptr noundef nonnull align 4 dereferenceable(4) %0) #5 comdat {
  %2 = alloca ptr, align 8
  store ptr %0, ptr %2, align 8, !tbaa !247
  %3 = load ptr, ptr %2, align 8, !tbaa !247
  %4 = call noundef nonnull align 4 dereferenceable(4) ptr @_ZNSt11_Tuple_implILm2EJiEE7_M_headERKS0_(ptr noundef nonnull align 4 dereferenceable(4) %3) #3
  ret ptr %4
}

; Function Attrs: mustprogress nounwind uwtable
define linkonce_odr noundef nonnull align 4 dereferenceable(4) ptr @_ZNSt11_Tuple_implILm1EJiiEE7_M_headERKS0_(ptr noundef nonnull align 4 dereferenceable(8) %0) #5 comdat align 2 {
  %2 = alloca ptr, align 8
  store ptr %0, ptr %2, align 8, !tbaa !241
  %3 = load ptr, ptr %2, align 8, !tbaa !241
  %4 = getelementptr inbounds i8, ptr %3, i64 4
  %5 = call noundef nonnull align 4 dereferenceable(4) ptr @_ZNSt10_Head_baseILm1EiLb0EE7_M_headERKS0_(ptr noundef nonnull align 4 dereferenceable(4) %4) #3
  ret ptr %5
}

; Function Attrs: mustprogress nounwind uwtable
define linkonce_odr noundef nonnull align 4 dereferenceable(4) ptr @_ZNSt10_Head_baseILm0EiLb0EE7_M_headERKS0_(ptr noundef nonnull align 4 dereferenceable(4) %0) #5 comdat align 2 {
  %2 = alloca ptr, align 8
  store ptr %0, ptr %2, align 8, !tbaa !243
  %3 = load ptr, ptr %2, align 8, !tbaa !243
  %4 = getelementptr inbounds nuw %"struct.std::_Head_base.3", ptr %3, i32 0, i32 0
  ret ptr %4
}

; Function Attrs: mustprogress nounwind uwtable
define linkonce_odr void @_ZNSt10_Head_baseILm1EiLb0EEC2IiEEOT_(ptr noundef nonnull align 4 dereferenceable(4) %0, ptr noundef nonnull align 4 dereferenceable(4) %1) unnamed_addr #5 comdat align 2 {
  %3 = alloca ptr, align 8
  %4 = alloca ptr, align 8
  store ptr %0, ptr %3, align 8, !tbaa !249
  store ptr %1, ptr %4, align 8, !tbaa !59
  %5 = load ptr, ptr %3, align 8
  %6 = getelementptr inbounds nuw %"struct.std::_Head_base.2", ptr %5, i32 0, i32 0
  %7 = load ptr, ptr %4, align 8, !tbaa !59
  %8 = load i32, ptr %7, align 4, !tbaa !45
  store i32 %8, ptr %6, align 4, !tbaa !251
  ret void
}

; Function Attrs: mustprogress uwtable
define linkonce_odr void @_ZNSt11_Tuple_implILm2EJiEEC2IiEEOT_(ptr noundef nonnull align 4 dereferenceable(4) %0, ptr noundef nonnull align 4 dereferenceable(4) %1) unnamed_addr #4 comdat align 2 {
  %3 = alloca ptr, align 8
  %4 = alloca ptr, align 8
  store ptr %0, ptr %3, align 8, !tbaa !247
  store ptr %1, ptr %4, align 8, !tbaa !59
  %5 = load ptr, ptr %3, align 8
  %6 = load ptr, ptr %4, align 8, !tbaa !59
  call void @_ZNSt10_Head_baseILm2EiLb0EEC2IiEEOT_(ptr noundef nonnull align 4 dereferenceable(4) %5, ptr noundef nonnull align 4 dereferenceable(4) %6)
  ret void
}

; Function Attrs: mustprogress nounwind uwtable
define linkonce_odr noundef zeroext i1 @_ZNSt15__tuple_compareISt5tupleIJiiiEES1_Lm3ELm3EE4__eqERKS1_S4_(ptr noundef nonnull align 4 dereferenceable(12) %0, ptr noundef nonnull align 4 dereferenceable(12) %1) #5 comdat align 2 {
  %3 = alloca ptr, align 8
  %4 = alloca ptr, align 8
  store ptr %0, ptr %3, align 8, !tbaa !47
  store ptr %1, ptr %4, align 8, !tbaa !47
  ret i1 true
}

; Function Attrs: mustprogress nounwind uwtable
define linkonce_odr noundef nonnull align 4 dereferenceable(4) ptr @_ZSt3getILm2EJiiiEERKNSt13tuple_elementIXT_ESt5tupleIJDpT0_EEE4typeERKS4_(ptr noundef nonnull align 4 dereferenceable(12) %0) #5 comdat {
  %2 = alloca ptr, align 8
  store ptr %0, ptr %2, align 8, !tbaa !47
  %3 = load ptr, ptr %2, align 8, !tbaa !47
  %4 = call noundef nonnull align 4 dereferenceable(4) ptr @_ZSt12__get_helperILm2EiJEERKT0_RKSt11_Tuple_implIXT_EJS0_DpT1_EE(ptr noundef nonnull align 4 dereferenceable(4) %3) #3
  ret ptr %4
}

; Function Attrs: mustprogress nounwind uwtable
define linkonce_odr noundef nonnull align 4 dereferenceable(4) ptr @_ZSt12__get_helperILm1EiJiEERKT0_RKSt11_Tuple_implIXT_EJS0_DpT1_EE(ptr noundef nonnull align 4 dereferenceable(8) %0) #5 comdat {
  %2 = alloca ptr, align 8
  store ptr %0, ptr %2, align 8, !tbaa !241
  %3 = load ptr, ptr %2, align 8, !tbaa !241
  %4 = call noundef nonnull align 4 dereferenceable(4) ptr @_ZNSt11_Tuple_implILm1EJiiEE7_M_headERKS0_(ptr noundef nonnull align 4 dereferenceable(8) %3) #3
  ret ptr %4
}

; Function Attrs: mustprogress nounwind uwtable
define linkonce_odr noundef nonnull align 4 dereferenceable(4) ptr @_ZNSt11_Tuple_implILm0EJiiiEE7_M_headERKS0_(ptr noundef nonnull align 4 dereferenceable(12) %0) #5 comdat align 2 {
  %2 = alloca ptr, align 8
  store ptr %0, ptr %2, align 8, !tbaa !239
  %3 = load ptr, ptr %2, align 8, !tbaa !239
  %4 = getelementptr inbounds i8, ptr %3, i64 8
  %5 = call noundef nonnull align 4 dereferenceable(4) ptr @_ZNSt10_Head_baseILm0EiLb0EE7_M_headERKS0_(ptr noundef nonnull align 4 dereferenceable(4) %4) #3
  ret ptr %5
}

; Function Attrs: mustprogress nounwind uwtable
define linkonce_odr void @_ZNSt10_Head_baseILm0EiLb0EEC2IiEEOT_(ptr noundef nonnull align 4 dereferenceable(4) %0, ptr noundef nonnull align 4 dereferenceable(4) %1) unnamed_addr #5 comdat align 2 {
  %3 = alloca ptr, align 8
  %4 = alloca ptr, align 8
  store ptr %0, ptr %3, align 8, !tbaa !243
  store ptr %1, ptr %4, align 8, !tbaa !59
  %5 = load ptr, ptr %3, align 8
  %6 = getelementptr inbounds nuw %"struct.std::_Head_base.3", ptr %5, i32 0, i32 0
  %7 = load ptr, ptr %4, align 8, !tbaa !59
  %8 = load i32, ptr %7, align 4, !tbaa !45
  store i32 %8, ptr %6, align 4, !tbaa !245
  ret void
}

; Function Attrs: mustprogress uwtable
define linkonce_odr void @_ZNSt11_Tuple_implILm1EJiiEEC2IiJiEvEEOT_DpOT0_(ptr noundef nonnull align 4 dereferenceable(8) %0, ptr noundef nonnull align 4 dereferenceable(4) %1, ptr noundef nonnull align 4 dereferenceable(4) %2) unnamed_addr #4 comdat align 2 {
  %4 = alloca ptr, align 8
  %5 = alloca ptr, align 8
  %6 = alloca ptr, align 8
  store ptr %0, ptr %4, align 8, !tbaa !241
  store ptr %1, ptr %5, align 8, !tbaa !59
  store ptr %2, ptr %6, align 8, !tbaa !59
  %7 = load ptr, ptr %4, align 8
  %8 = load ptr, ptr %6, align 8, !tbaa !59
  call void @_ZNSt11_Tuple_implILm2EJiEEC2IiEEOT_(ptr noundef nonnull align 4 dereferenceable(4) %7, ptr noundef nonnull align 4 dereferenceable(4) %8)
  %9 = getelementptr inbounds i8, ptr %7, i64 4
  %10 = load ptr, ptr %5, align 8, !tbaa !59
  call void @_ZNSt10_Head_baseILm1EiLb0EEC2IiEEOT_(ptr noundef nonnull align 4 dereferenceable(4) %9, ptr noundef nonnull align 4 dereferenceable(4) %10)
  ret void
}

; Function Attrs: mustprogress uwtable
define linkonce_odr noundef zeroext i1 @_ZNSt15__tuple_compareISt5tupleIJiiiEES1_Lm2ELm3EE4__eqERKS1_S4_(ptr noundef nonnull align 4 dereferenceable(12) %0, ptr noundef nonnull align 4 dereferenceable(12) %1) #4 comdat align 2 {
  %3 = alloca ptr, align 8
  %4 = alloca ptr, align 8
  store ptr %0, ptr %3, align 8, !tbaa !47
  store ptr %1, ptr %4, align 8, !tbaa !47
  %5 = load ptr, ptr %3, align 8, !tbaa !47
  %6 = call noundef nonnull align 4 dereferenceable(4) ptr @_ZSt3getILm2EJiiiEERKNSt13tuple_elementIXT_ESt5tupleIJDpT0_EEE4typeERKS4_(ptr noundef nonnull align 4 dereferenceable(12) %5) #3
  %7 = load i32, ptr %6, align 4, !tbaa !45
  %8 = load ptr, ptr %4, align 8, !tbaa !47
  %9 = call noundef nonnull align 4 dereferenceable(4) ptr @_ZSt3getILm2EJiiiEERKNSt13tuple_elementIXT_ESt5tupleIJDpT0_EEE4typeERKS4_(ptr noundef nonnull align 4 dereferenceable(12) %8) #3
  %10 = load i32, ptr %9, align 4, !tbaa !45
  %11 = icmp eq i32 %7, %10
  br i1 %11, label %12, label %16

12:                                               ; preds = %2
  %13 = load ptr, ptr %3, align 8, !tbaa !47
  %14 = load ptr, ptr %4, align 8, !tbaa !47
  %15 = call noundef zeroext i1 @_ZNSt15__tuple_compareISt5tupleIJiiiEES1_Lm3ELm3EE4__eqERKS1_S4_(ptr noundef nonnull align 4 dereferenceable(12) %13, ptr noundef nonnull align 4 dereferenceable(12) %14)
  br label %16

16:                                               ; preds = %12, %2
  %17 = phi i1 [ false, %2 ], [ %15, %12 ]
  ret i1 %17
}

; Function Attrs: mustprogress nounwind uwtable
define linkonce_odr noundef nonnull align 4 dereferenceable(4) ptr @_ZSt3getILm1EJiiiEERKNSt13tuple_elementIXT_ESt5tupleIJDpT0_EEE4typeERKS4_(ptr noundef nonnull align 4 dereferenceable(12) %0) #5 comdat {
  %2 = alloca ptr, align 8
  store ptr %0, ptr %2, align 8, !tbaa !47
  %3 = load ptr, ptr %2, align 8, !tbaa !47
  %4 = call noundef nonnull align 4 dereferenceable(4) ptr @_ZSt12__get_helperILm1EiJiEERKT0_RKSt11_Tuple_implIXT_EJS0_DpT1_EE(ptr noundef nonnull align 4 dereferenceable(8) %3) #3
  ret ptr %4
}

; Function Attrs: mustprogress nounwind uwtable
define linkonce_odr noundef nonnull align 4 dereferenceable(4) ptr @_ZSt12__get_helperILm0EiJiiEERKT0_RKSt11_Tuple_implIXT_EJS0_DpT1_EE(ptr noundef nonnull align 4 dereferenceable(12) %0) #5 comdat {
  %2 = alloca ptr, align 8
  store ptr %0, ptr %2, align 8, !tbaa !239
  %3 = load ptr, ptr %2, align 8, !tbaa !239
  %4 = call noundef nonnull align 4 dereferenceable(4) ptr @_ZNSt11_Tuple_implILm0EJiiiEE7_M_headERKS0_(ptr noundef nonnull align 4 dereferenceable(12) %3) #3
  ret ptr %4
}

; Function Attrs: noinline noreturn nounwind uwtable
define linkonce_odr hidden void @__clang_call_terminate(ptr noundef %0) #11 comdat {
  %2 = call ptr @__cxa_begin_catch(ptr %0) #3
  call void @_ZSt9terminatev() #22
  unreachable
}

; Function Attrs: mustprogress uwtable
define linkonce_odr void @_ZNSt11_Tuple_implILm0EJiiiEEC2IiJiiEvEEOT_DpOT0_(ptr noundef nonnull align 4 dereferenceable(12) %0, ptr noundef nonnull align 4 dereferenceable(4) %1, ptr noundef nonnull align 4 dereferenceable(4) %2, ptr noundef nonnull align 4 dereferenceable(4) %3) unnamed_addr #4 comdat align 2 {
  %5 = alloca ptr, align 8
  %6 = alloca ptr, align 8
  %7 = alloca ptr, align 8
  %8 = alloca ptr, align 8
  store ptr %0, ptr %5, align 8, !tbaa !239
  store ptr %1, ptr %6, align 8, !tbaa !59
  store ptr %2, ptr %7, align 8, !tbaa !59
  store ptr %3, ptr %8, align 8, !tbaa !59
  %9 = load ptr, ptr %5, align 8
  %10 = load ptr, ptr %7, align 8, !tbaa !59
  %11 = load ptr, ptr %8, align 8, !tbaa !59
  call void @_ZNSt11_Tuple_implILm1EJiiEEC2IiJiEvEEOT_DpOT0_(ptr noundef nonnull align 4 dereferenceable(8) %9, ptr noundef nonnull align 4 dereferenceable(4) %10, ptr noundef nonnull align 4 dereferenceable(4) %11)
  %12 = getelementptr inbounds i8, ptr %9, i64 8
  %13 = load ptr, ptr %6, align 8, !tbaa !59
  call void @_ZNSt10_Head_baseILm0EiLb0EEC2IiEEOT_(ptr noundef nonnull align 4 dereferenceable(4) %12, ptr noundef nonnull align 4 dereferenceable(4) %13)
  ret void
}

; Function Attrs: mustprogress uwtable
define linkonce_odr noundef zeroext i1 @_ZNSt15__tuple_compareISt5tupleIJiiiEES1_Lm1ELm3EE4__eqERKS1_S4_(ptr noundef nonnull align 4 dereferenceable(12) %0, ptr noundef nonnull align 4 dereferenceable(12) %1) #4 comdat align 2 {
  %3 = alloca ptr, align 8
  %4 = alloca ptr, align 8
  store ptr %0, ptr %3, align 8, !tbaa !47
  store ptr %1, ptr %4, align 8, !tbaa !47
  %5 = load ptr, ptr %3, align 8, !tbaa !47
  %6 = call noundef nonnull align 4 dereferenceable(4) ptr @_ZSt3getILm1EJiiiEERKNSt13tuple_elementIXT_ESt5tupleIJDpT0_EEE4typeERKS4_(ptr noundef nonnull align 4 dereferenceable(12) %5) #3
  %7 = load i32, ptr %6, align 4, !tbaa !45
  %8 = load ptr, ptr %4, align 8, !tbaa !47
  %9 = call noundef nonnull align 4 dereferenceable(4) ptr @_ZSt3getILm1EJiiiEERKNSt13tuple_elementIXT_ESt5tupleIJDpT0_EEE4typeERKS4_(ptr noundef nonnull align 4 dereferenceable(12) %8) #3
  %10 = load i32, ptr %9, align 4, !tbaa !45
  %11 = icmp eq i32 %7, %10
  br i1 %11, label %12, label %16

12:                                               ; preds = %2
  %13 = load ptr, ptr %3, align 8, !tbaa !47
  %14 = load ptr, ptr %4, align 8, !tbaa !47
  %15 = call noundef zeroext i1 @_ZNSt15__tuple_compareISt5tupleIJiiiEES1_Lm2ELm3EE4__eqERKS1_S4_(ptr noundef nonnull align 4 dereferenceable(12) %13, ptr noundef nonnull align 4 dereferenceable(12) %14)
  br label %16

16:                                               ; preds = %12, %2
  %17 = phi i1 [ false, %2 ], [ %15, %12 ]
  ret i1 %17
}

; Function Attrs: mustprogress nounwind uwtable
define linkonce_odr noundef nonnull align 4 dereferenceable(4) ptr @_ZSt3getILm0EJiiiEERKNSt13tuple_elementIXT_ESt5tupleIJDpT0_EEE4typeERKS4_(ptr noundef nonnull align 4 dereferenceable(12) %0) #5 comdat {
  %2 = alloca ptr, align 8
  store ptr %0, ptr %2, align 8, !tbaa !47
  %3 = load ptr, ptr %2, align 8, !tbaa !47
  %4 = call noundef nonnull align 4 dereferenceable(4) ptr @_ZSt12__get_helperILm0EiJiiEERKT0_RKSt11_Tuple_implIXT_EJS0_DpT1_EE(ptr noundef nonnull align 4 dereferenceable(12) %3) #3
  ret ptr %4
}

; Function Attrs: mustprogress nounwind uwtable
define linkonce_odr void @_ZNSt5tupleIJiiiEEC2IJiiiELb1ETnNSt9enable_ifIXclsr4_TCCIXT0_EEE29__is_implicitly_constructibleIDpT_EEEbE4typeELb1EEEDpOS3_(ptr noundef nonnull align 4 dereferenceable(12) %0, ptr noundef nonnull align 4 dereferenceable(4) %1, ptr noundef nonnull align 4 dereferenceable(4) %2, ptr noundef nonnull align 4 dereferenceable(4) %3) unnamed_addr #5 comdat align 2 personality ptr @__gxx_personality_v0 {
  %5 = alloca ptr, align 8
  %6 = alloca ptr, align 8
  %7 = alloca ptr, align 8
  %8 = alloca ptr, align 8
  store ptr %0, ptr %5, align 8, !tbaa !47
  store ptr %1, ptr %6, align 8, !tbaa !59
  store ptr %2, ptr %7, align 8, !tbaa !59
  store ptr %3, ptr %8, align 8, !tbaa !59
  %9 = load ptr, ptr %5, align 8
  %10 = load ptr, ptr %6, align 8, !tbaa !59
  %11 = load ptr, ptr %7, align 8, !tbaa !59
  %12 = load ptr, ptr %8, align 8, !tbaa !59
  invoke void @_ZNSt11_Tuple_implILm0EJiiiEEC2IiJiiEvEEOT_DpOT0_(ptr noundef nonnull align 4 dereferenceable(12) %9, ptr noundef nonnull align 4 dereferenceable(4) %10, ptr noundef nonnull align 4 dereferenceable(4) %11, ptr noundef nonnull align 4 dereferenceable(4) %12)
          to label %13 unwind label %14

13:                                               ; preds = %4
  ret void

14:                                               ; preds = %4
  %15 = landingpad { ptr, i32 }
          catch ptr null
  %16 = extractvalue { ptr, i32 } %15, 0
  call void @__clang_call_terminate(ptr %16) #22
  unreachable
}

; Function Attrs: mustprogress uwtable
define linkonce_odr noundef zeroext i1 @_ZNSt15__tuple_compareISt5tupleIJiiiEES1_Lm0ELm3EE4__eqERKS1_S4_(ptr noundef nonnull align 4 dereferenceable(12) %0, ptr noundef nonnull align 4 dereferenceable(12) %1) #4 comdat align 2 {
  %3 = alloca ptr, align 8
  %4 = alloca ptr, align 8
  store ptr %0, ptr %3, align 8, !tbaa !47
  store ptr %1, ptr %4, align 8, !tbaa !47
  %5 = load ptr, ptr %3, align 8, !tbaa !47
  %6 = call noundef nonnull align 4 dereferenceable(4) ptr @_ZSt3getILm0EJiiiEERKNSt13tuple_elementIXT_ESt5tupleIJDpT0_EEE4typeERKS4_(ptr noundef nonnull align 4 dereferenceable(12) %5) #3
  %7 = load i32, ptr %6, align 4, !tbaa !45
  %8 = load ptr, ptr %4, align 8, !tbaa !47
  %9 = call noundef nonnull align 4 dereferenceable(4) ptr @_ZSt3getILm0EJiiiEERKNSt13tuple_elementIXT_ESt5tupleIJDpT0_EEE4typeERKS4_(ptr noundef nonnull align 4 dereferenceable(12) %8) #3
  %10 = load i32, ptr %9, align 4, !tbaa !45
  %11 = icmp eq i32 %7, %10
  br i1 %11, label %12, label %16

12:                                               ; preds = %2
  %13 = load ptr, ptr %3, align 8, !tbaa !47
  %14 = load ptr, ptr %4, align 8, !tbaa !47
  %15 = call noundef zeroext i1 @_ZNSt15__tuple_compareISt5tupleIJiiiEES1_Lm1ELm3EE4__eqERKS1_S4_(ptr noundef nonnull align 4 dereferenceable(12) %13, ptr noundef nonnull align 4 dereferenceable(12) %14)
  br label %16

16:                                               ; preds = %12, %2
  %17 = phi i1 [ false, %2 ], [ %15, %12 ]
  ret i1 %17
}

; Function Attrs: mustprogress nounwind uwtable
define linkonce_odr void @_ZSt10make_tupleIJiiiEESt5tupleIJDpNSt25__strip_reference_wrapperINSt5decayIT_E4typeEE6__typeEEEDpOS3_(ptr dead_on_unwind noalias writable sret(%"class.std::tuple") align 4 %0, ptr noundef nonnull align 4 dereferenceable(4) %1, ptr noundef nonnull align 4 dereferenceable(4) %2, ptr noundef nonnull align 4 dereferenceable(4) %3) #5 comdat {
  %5 = alloca ptr, align 8
  %6 = alloca ptr, align 8
  %7 = alloca ptr, align 8
  %8 = alloca ptr, align 8
  store ptr %0, ptr %5, align 8
  store ptr %1, ptr %6, align 8, !tbaa !59
  store ptr %2, ptr %7, align 8, !tbaa !59
  store ptr %3, ptr %8, align 8, !tbaa !59
  %9 = load ptr, ptr %6, align 8, !tbaa !59
  %10 = load ptr, ptr %7, align 8, !tbaa !59
  %11 = load ptr, ptr %8, align 8, !tbaa !59
  call void @_ZNSt5tupleIJiiiEEC2IJiiiELb1ETnNSt9enable_ifIXclsr4_TCCIXT0_EEE29__is_implicitly_constructibleIDpT_EEEbE4typeELb1EEEDpOS3_(ptr noundef nonnull align 4 dereferenceable(12) %0, ptr noundef nonnull align 4 dereferenceable(4) %9, ptr noundef nonnull align 4 dereferenceable(4) %10, ptr noundef nonnull align 4 dereferenceable(4) %11) #3
  ret void
}

; Function Attrs: mustprogress uwtable
define linkonce_odr noundef zeroext i1 @_ZSteqIJiiiEJiiiEEbRKSt5tupleIJDpT_EERKS0_IJDpT0_EE(ptr noundef nonnull align 4 dereferenceable(12) %0, ptr noundef nonnull align 4 dereferenceable(12) %1) #4 comdat {
  %3 = alloca ptr, align 8
  %4 = alloca ptr, align 8
  store ptr %0, ptr %3, align 8, !tbaa !47
  store ptr %1, ptr %4, align 8, !tbaa !47
  %5 = load ptr, ptr %3, align 8, !tbaa !47
  %6 = load ptr, ptr %4, align 8, !tbaa !47
  %7 = call noundef zeroext i1 @_ZNSt15__tuple_compareISt5tupleIJiiiEES1_Lm0ELm3EE4__eqERKS1_S4_(ptr noundef nonnull align 4 dereferenceable(12) %5, ptr noundef nonnull align 4 dereferenceable(12) %6)
  ret i1 %7
}

; Function Attrs: mustprogress uwtable
define void @_ZN7xgboost7Version4SelfEv(ptr dead_on_unwind noalias writable sret(%"class.std::tuple") align 4 %0) #4 align 2 {
  %2 = alloca ptr, align 8
  %3 = alloca i32, align 4
  %4 = alloca i32, align 4
  %5 = alloca i32, align 4
  store ptr %0, ptr %2, align 8
  call void @llvm.lifetime.start.p0(i64 4, ptr %3) #3
  store i32 3, ptr %3, align 4, !tbaa !45
  call void @llvm.lifetime.start.p0(i64 4, ptr %4) #3
  store i32 0, ptr %4, align 4, !tbaa !45
  call void @llvm.lifetime.start.p0(i64 4, ptr %5) #3
  store i32 0, ptr %5, align 4, !tbaa !45
  call void @_ZSt10make_tupleIJiiiEESt5tupleIJDpNSt25__strip_reference_wrapperINSt5decayIT_E4typeEE6__typeEEEDpOS3_(ptr dead_on_unwind writable sret(%"class.std::tuple") align 4 %0, ptr noundef nonnull align 4 dereferenceable(4) %3, ptr noundef nonnull align 4 dereferenceable(4) %4, ptr noundef nonnull align 4 dereferenceable(4) %5)
  call void @llvm.lifetime.end.p0(i64 4, ptr %5) #3
  call void @llvm.lifetime.end.p0(i64 4, ptr %4) #3
  call void @llvm.lifetime.end.p0(i64 4, ptr %3) #3
  ret void
}

; Function Attrs: mustprogress uwtable
define noundef zeroext i1 @_ZN7xgboost7Version4SameERKSt5tupleIJiiiEE(ptr noundef nonnull align 4 dereferenceable(12) %0) #4 align 2 {
  %2 = alloca ptr, align 8
  %3 = alloca %"class.std::tuple", align 4
  store ptr %0, ptr %2, align 8, !tbaa !47
  %4 = load ptr, ptr %2, align 8, !tbaa !47
  call void @llvm.lifetime.start.p0(i64 12, ptr %3) #3
  call void @_ZN7xgboost7Version4SelfEv(ptr dead_on_unwind writable sret(%"class.std::tuple") align 4 %3)
  %5 = call noundef zeroext i1 @_ZSteqIJiiiEJiiiEEbRKSt5tupleIJDpT_EERKS0_IJDpT0_EE(ptr noundef nonnull align 4 dereferenceable(12) %4, ptr noundef nonnull align 4 dereferenceable(12) %3)
  call void @llvm.lifetime.end.p0(i64 12, ptr %3) #3
  ret i1 %5
}