; Function Attrs: mustprogress nofree norecurse nosync nounwind willreturn memory(argmem: read) uwtable
define noundef zeroext i1 @_ZN7xgboost7Version4SameERKSt5tupleIJiiiEE(ptr noundef nonnull readonly align 4 captures(none) dereferenceable(12) %0) local_unnamed_addr #13 align 2 personality ptr @__gxx_personality_v0 {
  %2 = getelementptr inbounds nuw i8, ptr %0, i64 8
  %3 = load i32, ptr %2, align 4, !tbaa !38
  %4 = icmp eq i32 %3, 3
  br i1 %4, label %5, label %_ZSteqIJiiiEJiiiEEbRKSt5tupleIJDpT_EERKS0_IJDpT0_EE.exit

5:                                                ; preds = %1
  %6 = getelementptr inbounds nuw i8, ptr %0, i64 4
  %7 = load i32, ptr %6, align 4, !tbaa !38
  %8 = icmp eq i32 %7, 0
  %9 = load i32, ptr %0, align 4
  %10 = icmp eq i32 %9, 0
  %11 = select i1 %8, i1 %10, i1 false
  br label %_ZSteqIJiiiEJiiiEEbRKSt5tupleIJDpT_EERKS0_IJDpT0_EE.exit

_ZSteqIJiiiEJiiiEEbRKSt5tupleIJDpT_EERKS0_IJDpT0_EE.exit: ; preds = %1, %5
  %12 = phi i1 [ false, %1 ], [ %11, %5 ]
  ret i1 %12
}